target datalayout = "e-m:e-p270:32:32-p271:32:32-p272:64:64-i64:64-i128:128-f80:128-n8:16:32:64-S128"
target triple = "x86_64-pc-linux-gnu"

%"class.testing::TestPartResultReporterInterface" = type { ptr }
%"class.testing::internal::DefaultPerThreadTestPartResultReporter" = type { %"class.testing::TestPartResultReporterInterface", ptr }

; Function Attrs: mustprogress uwtable
define hidden void @_ZN7testing8internal38DefaultPerThreadTestPartResultReporter20ReportTestPartResultERKNS_14TestPartResultE(ptr noundef nonnull align 8 dereferenceable(16) %0, ptr noundef nonnull align 8 dereferenceable(112) %1) unnamed_addr #6 align 2 {
  %3 = alloca ptr, align 8
  %4 = alloca ptr, align 8
  store ptr %0, ptr %3, align 8, !tbaa !174
  store ptr %1, ptr %4, align 8, !tbaa !151
  %5 = load ptr, ptr %3, align 8
  %6 = getelementptr inbounds nuw %"class.testing::internal::DefaultPerThreadTestPartResultReporter", ptr %5, i32 0, i32 1
  %7 = load ptr, ptr %6, align 8, !tbaa !176
  %8 = call noundef ptr @_ZN7testing8internal12UnitTestImpl31GetGlobalTestPartResultReporterEv(ptr noundef nonnull align 8 dereferenceable(497) %7)
  %9 = load ptr, ptr %4, align 8, !tbaa !151
  %10 = load ptr, ptr %8, align 8, !tbaa !33
  %11 = getelementptr inbounds ptr, ptr %10, i64 2
  %12 = load ptr, ptr %11, align 8
  call void %12(ptr noundef nonnull align 8 dereferenceable(8) %8, ptr noundef nonnull align 8 dereferenceable(112) %9)
  ret void
}